target datalayout = "e-m:e-p270:32:32-p271:32:32-p272:64:64-i64:64-i128:128-f80:128-n8:16:32:64-S128"
target triple = "x86_64-pc-linux-gnu"

%struct.getpwnam_r_args = type { ptr, ptr, i64, ptr, %struct.passwd }
%struct.passwd = type { ptr, ptr, i32, i32, ptr, ptr, ptr }

; Function Attrs: nounwind sspstrong uwtable
define internal ptr @nogvl_getpwnam_r(ptr noundef %0) #0 {
  %2 = alloca ptr, align 8
  %3 = alloca ptr, align 8
  store ptr %0, ptr %2, align 8, !tbaa !62
  call void @llvm.lifetime.start.p0(i64 8, ptr %3) #27
  %4 = load ptr, ptr %2, align 8, !tbaa !62
  store ptr %4, ptr %3, align 8, !tbaa !168
  %5 = load ptr, ptr %3, align 8, !tbaa !168
  %6 = getelementptr inbounds nuw %struct.getpwnam_r_args, ptr %5, i32 0, i32 0
  %7 = load ptr, ptr %6, align 8, !tbaa !159
  %8 = load ptr, ptr %3, align 8, !tbaa !168
  %9 = getelementptr inbounds nuw %struct.getpwnam_r_args, ptr %8, i32 0, i32 4
  %10 = load ptr, ptr %3, align 8, !tbaa !168
  %11 = getelementptr inbounds nuw %struct.getpwnam_r_args, ptr %10, i32 0, i32 1
  %12 = load ptr, ptr %11, align 8, !tbaa !163
  %13 = load ptr, ptr %3, align 8, !tbaa !168
  %14 = getelementptr inbounds nuw %struct.getpwnam_r_args, ptr %13, i32 0, i32 2
  %15 = load i64, ptr %14, align 8, !tbaa !164
  %16 = load ptr, ptr %3, align 8, !tbaa !168
  %17 = getelementptr inbounds nuw %struct.getpwnam_r_args, ptr %16, i32 0, i32 3
  %18 = call i32 @getpwnam_r(ptr noundef %7, ptr noundef %9, ptr noundef %12, i64 noundef %15, ptr noundef %17)
  %19 = sext i32 %18 to i64
  %20 = inttoptr i64 %19 to ptr
  call void @llvm.lifetime.end.p0(i64 8, ptr %3) #27
  ret ptr %20
}