; Function Attrs: nounwind sspstrong uwtable
define internal ptr @nogvl_getpwnam_r(ptr noundef %0) #1 {
  %2 = load ptr, ptr %0, align 8, !tbaa !216
  %3 = getelementptr inbounds nuw i8, ptr %0, i64 32
  %4 = getelementptr inbounds nuw i8, ptr %0, i64 8
  %5 = load ptr, ptr %4, align 8, !tbaa !220
  %6 = getelementptr inbounds nuw i8, ptr %0, i64 16
  %7 = load i64, ptr %6, align 8, !tbaa !221
  %8 = getelementptr inbounds nuw i8, ptr %0, i64 24
  %9 = tail call i32 @getpwnam_r(ptr noundef %2, ptr noundef nonnull %3, ptr noundef %5, i64 noundef %7, ptr noundef nonnull %8) #27
  %10 = sext i32 %9 to i64
  %11 = inttoptr i64 %10 to ptr
  ret ptr %11
}